; Function Attrs: mustprogress uwtable
define hidden void @_ZN6cvtest12applyTestTagERKNSt7__cxx1112basic_stringIcSt11char_traitsIcESaIcEEE(ptr noundef nonnull align 8 dereferenceable(32) %0) local_unnamed_addr #5 {
  %2 = getelementptr inbounds nuw i8, ptr %0, i64 8
  %3 = load i64, ptr %2, align 8, !tbaa !15
  %4 = icmp eq i64 %3, 0
  br i1 %4, label %8, label %5

5:                                                ; preds = %1
  %6 = tail call fastcc noundef zeroext i1 @_ZN6cvtestL16applyTestTagImplERKNSt7__cxx1112basic_stringIcSt11char_traitsIcESaIcEEEb(ptr noundef nonnull align 8 dereferenceable(32) %0, i1 noundef zeroext true)
  br i1 %6, label %7, label %8

7:                                                ; preds = %5
  tail call void @_ZN6cvtest13checkTestTagsEv()
  br label %8

8:                                                ; preds = %5, %1, %7
  ret void
}